; Function Attrs: mustprogress uwtable
define void @_ZN6colvar9map_total11apply_forceERK11colvarvalue(ptr noundef nonnull align 8 dereferenceable(1680) %0, ptr noundef nonnull align 8 dereferenceable(168) %1) unnamed_addr #2 align 2 {
  %3 = getelementptr inbounds nuw i8, ptr %0, i64 1648
  %4 = load ptr, ptr %3, align 8, !tbaa !24
  %.not = icmp eq ptr %4, null
  br i1 %.not, label %6, label %5

5:                                                ; preds = %2
  tail call void @_ZN6colvar3cvc11apply_forceERK11colvarvalue(ptr noundef nonnull align 8 dereferenceable(1608) %0, ptr noundef nonnull align 8 dereferenceable(168) %1)
  br label %19

6:                                                ; preds = %2
  %7 = tail call noundef ptr @_ZN12colvarmodule4mainEv()
  %8 = load ptr, ptr @_ZN12colvarmodule5proxyE, align 8, !tbaa !20
  %9 = getelementptr inbounds nuw i8, ptr %0, i64 1644
  %10 = load i32, ptr %9, align 4, !tbaa !97
  %11 = getelementptr inbounds nuw i8, ptr %1, i64 8
  %12 = load double, ptr %11, align 8, !tbaa !122
  %13 = getelementptr inbounds nuw i8, ptr %8, i64 728
  %14 = sext i32 %10 to i64
  %15 = load ptr, ptr %13, align 8, !tbaa !7
  %16 = getelementptr inbounds nuw double, ptr %15, i64 %14
  %17 = load double, ptr %16, align 8, !tbaa !122
  %18 = fadd double %12, %17
  store double %18, ptr %16, align 8, !tbaa !122
  br label %19

19:                                               ; preds = %6, %5
  ret void
}